; ModuleID = '61/247.c'
source_filename = "61/247.c"
target datalayout = "e-m:e-p270:32:32-p271:32:32-p272:64:64-i64:64-f80:128-n8:16:32:64-S128"
target triple = "x86_64-pc-linux-gnu"

@.str = private unnamed_addr constant [3 x i8] c"%d\00", align 1
@.str.1 = private unnamed_addr constant [4 x i8] c"%d\0A\00", align 1

; Function Attrs: noinline nounwind uwtable
define dso_local i32 @main() #0 {
  %1 = alloca i32, align 4
  %2 = alloca [25 x i32], align 16
  %3 = alloca i32, align 4
  %4 = alloca [20 x i32], align 16
  %5 = alloca i32, align 4
  %6 = alloca i32, align 4
  store i32 0, i32* %1, align 4
  %7 = bitcast [25 x i32]* %2 to i8*
  call void @llvm.memset.p0i8.i64(i8* align 16 %7, i8 0, i64 100, i1 false)
  %8 = bitcast i8* %7 to <{ i32, i32, i32, [22 x i32] }>*
  %9 = getelementptr inbounds <{ i32, i32, i32, [22 x i32] }>, <{ i32, i32, i32, [22 x i32] }>* %8, i32 0, i32 1
  store i32 1, i32* %9, align 4
  %10 = getelementptr inbounds <{ i32, i32, i32, [22 x i32] }>, <{ i32, i32, i32, [22 x i32] }>* %8, i32 0, i32 2
  store i32 1, i32* %10, align 8
  store i32 3, i32* %5, align 4
  br label %11

11:                                               ; preds = %29, %0
  %12 = load i32, i32* %5, align 4
  %13 = icmp sle i32 %12, 25
  br i1 %13, label %14, label %32

14:                                               ; preds = %11
  %15 = load i32, i32* %5, align 4
  %16 = sub nsw i32 %15, 1
  %17 = sext i32 %16 to i64
  %18 = getelementptr inbounds [25 x i32], [25 x i32]* %2, i64 0, i64 %17
  %19 = load i32, i32* %18, align 4
  %20 = load i32, i32* %5, align 4
  %21 = sub nsw i32 %20, 2
  %22 = sext i32 %21 to i64
  %23 = getelementptr inbounds [25 x i32], [25 x i32]* %2, i64 0, i64 %22
  %24 = load i32, i32* %23, align 4
  %25 = add nsw i32 %19, %24
  %26 = load i32, i32* %5, align 4
  %27 = sext i32 %26 to i64
  %28 = getelementptr inbounds [25 x i32], [25 x i32]* %2, i64 0, i64 %27
  store i32 %25, i32* %28, align 4
  br label %29

29:                                               ; preds = %14
  %30 = load i32, i32* %5, align 4
  %31 = add nsw i32 %30, 1
  store i32 %31, i32* %5, align 4
  br label %11

32:                                               ; preds = %11
  %33 = call i32 (i8*, ...) @__isoc99_scanf(i8* getelementptr inbounds ([3 x i8], [3 x i8]* @.str, i64 0, i64 0), i32* %3)
  store i32 0, i32* %6, align 4
  br label %34

34:                                               ; preds = %51, %32
  %35 = load i32, i32* %6, align 4
  %36 = load i32, i32* %3, align 4
  %37 = icmp slt i32 %35, %36
  br i1 %37, label %38, label %54

38:                                               ; preds = %34
  %39 = load i32, i32* %6, align 4
  %40 = sext i32 %39 to i64
  %41 = getelementptr inbounds [20 x i32], [20 x i32]* %4, i64 0, i64 %40
  %42 = call i32 (i8*, ...) @__isoc99_scanf(i8* getelementptr inbounds ([3 x i8], [3 x i8]* @.str, i64 0, i64 0), i32* %41)
  %43 = load i32, i32* %6, align 4
  %44 = sext i32 %43 to i64
  %45 = getelementptr inbounds [20 x i32], [20 x i32]* %4, i64 0, i64 %44
  %46 = load i32, i32* %45, align 4
  %47 = sext i32 %46 to i64
  %48 = getelementptr inbounds [25 x i32], [25 x i32]* %2, i64 0, i64 %47
  %49 = load i32, i32* %48, align 4
  %50 = call i32 (i8*, ...) @printf(i8* getelementptr inbounds ([4 x i8], [4 x i8]* @.str.1, i64 0, i64 0), i32 %49)
  br label %51

51:                                               ; preds = %38
  %52 = load i32, i32* %6, align 4
  %53 = add nsw i32 %52, 1
  store i32 %53, i32* %6, align 4
  br label %34

54:                                               ; preds = %34
  ret i32 0
}

; Function Attrs: argmemonly nounwind willreturn
declare void @llvm.memset.p0i8.i64(i8* nocapture writeonly, i8, i64, i1 immarg) #1

declare dso_local i32 @__isoc99_scanf(i8*, ...) #2

declare dso_local i32 @printf(i8*, ...) #2


!llvm.module.flags = !{!0}
!llvm.ident = !{!1}

!0 = !{i32 1, !"wchar_size", i32 4}
!1 = !{!"clang version 10.0.0-4ubuntu1 "}
